(dp0
Vengine
p1
S'pdflatex'
p2
sVpackages
p3
c__builtin__
set
p4
((lp5
Vlistingsutf8
p6
aVverbatim
p7
aVindentfirst
p8
aVcolor
p9
aVbabel
p10
aVgeometry
p11
aVgraphicx
p12
aVinputenc
p13
atp14
Rp15
sVfiles_with_guttermarks
p16
g4
((lp17
S'manual.tex'
p18
aV/Users/Angie/Documents/MIEIC/3A1S/LAIG/practice/Project3/manual/./manual.tex
p19
atp20
Rp21
sVsynctex
p22
I01
s.